target datalayout = "e-m:e-p270:32:32-p271:32:32-p272:64:64-i64:64-i128:128-f80:128-n8:16:32:64-S128"
target triple = "x86_64-pc-linux-gnu"

; Function Attrs: nounwind uwtable
define internal void @SDL_Convert41ToStereo(ptr noundef %0, ptr noundef %1, i32 noundef %2) #0 {
  %4 = alloca ptr, align 8
  %5 = alloca ptr, align 8
  %6 = alloca i32, align 4
  %7 = alloca i32, align 4
  %8 = alloca float, align 4
  %9 = alloca float, align 4
  %10 = alloca float, align 4
  store ptr %0, ptr %4, align 8
  store ptr %1, ptr %5, align 8
  store i32 %2, ptr %6, align 4
  call void @llvm.lifetime.start.p0(i64 4, ptr %7) #7
  %11 = load i32, ptr %6, align 4
  store i32 %11, ptr %7, align 4
  br label %12

12:                                               ; preds = %49, %3
  %13 = load i32, ptr %7, align 4
  %14 = icmp ne i32 %13, 0
  br i1 %14, label %15, label %56

15:                                               ; preds = %12
  call void @llvm.lifetime.start.p0(i64 4, ptr %8) #7
  %16 = load ptr, ptr %5, align 8
  %17 = getelementptr inbounds float, ptr %16, i64 2
  %18 = load float, ptr %17, align 4
  store float %18, ptr %8, align 4
  call void @llvm.lifetime.start.p0(i64 4, ptr %9) #7
  %19 = load ptr, ptr %5, align 8
  %20 = getelementptr inbounds float, ptr %19, i64 3
  %21 = load float, ptr %20, align 4
  store float %21, ptr %9, align 4
  call void @llvm.lifetime.start.p0(i64 4, ptr %10) #7
  %22 = load ptr, ptr %5, align 8
  %23 = getelementptr inbounds float, ptr %22, i64 4
  %24 = load float, ptr %23, align 4
  store float %24, ptr %10, align 4
  %25 = load ptr, ptr %5, align 8
  %26 = getelementptr inbounds float, ptr %25, i64 0
  %27 = load float, ptr %26, align 4
  %28 = load float, ptr %8, align 4
  %29 = fmul float %28, 0x3FBC71C720000000
  %30 = call float @llvm.fmuladd.f32(float %27, float 0x3FD7F341C0000000, float %29)
  %31 = load float, ptr %9, align 4
  %32 = call float @llvm.fmuladd.f32(float %31, float 0x3FD46C5100000000, float %30)
  %33 = load float, ptr %10, align 4
  %34 = call float @llvm.fmuladd.f32(float %33, float 0x3FC907F6E0000000, float %32)
  %35 = load ptr, ptr %4, align 8
  %36 = getelementptr inbounds float, ptr %35, i64 0
  store float %34, ptr %36, align 4
  %37 = load ptr, ptr %5, align 8
  %38 = getelementptr inbounds float, ptr %37, i64 1
  %39 = load float, ptr %38, align 4
  %40 = load float, ptr %8, align 4
  %41 = fmul float %40, 0x3FBC71C720000000
  %42 = call float @llvm.fmuladd.f32(float %39, float 0x3FD7F341C0000000, float %41)
  %43 = load float, ptr %9, align 4
  %44 = call float @llvm.fmuladd.f32(float %43, float 0x3FC907F6E0000000, float %42)
  %45 = load float, ptr %10, align 4
  %46 = call float @llvm.fmuladd.f32(float %45, float 0x3FD46C5100000000, float %44)
  %47 = load ptr, ptr %4, align 8
  %48 = getelementptr inbounds float, ptr %47, i64 1
  store float %46, ptr %48, align 4
  call void @llvm.lifetime.end.p0(i64 4, ptr %10) #7
  call void @llvm.lifetime.end.p0(i64 4, ptr %9) #7
  call void @llvm.lifetime.end.p0(i64 4, ptr %8) #7
  br label %49

49:                                               ; preds = %15
  %50 = load i32, ptr %7, align 4
  %51 = add nsw i32 %50, -1
  store i32 %51, ptr %7, align 4
  %52 = load ptr, ptr %5, align 8
  %53 = getelementptr inbounds float, ptr %52, i64 5
  store ptr %53, ptr %5, align 8
  %54 = load ptr, ptr %4, align 8
  %55 = getelementptr inbounds float, ptr %54, i64 2
  store ptr %55, ptr %4, align 8
  br label %12, !llvm.loop !73

56:                                               ; preds = %12
  call void @llvm.lifetime.end.p0(i64 4, ptr %7) #7
  ret void
}