; Function Attrs: nofree norecurse nosync nounwind memory(argmem: readwrite) uwtable
define internal void @SDL_Convert41ToStereo(ptr noundef writeonly captures(none) %0, ptr noundef readonly captures(none) %1, i32 noundef %2) #5 {
  %.not19 = icmp eq i32 %2, 0
  br i1 %.not19, label %._crit_edge, label %.lr.ph

.lr.ph:                                           ; preds = %3, %.lr.ph
  %.022 = phi ptr [ %23, %.lr.ph ], [ %0, %3 ]
  %.01721 = phi ptr [ %22, %.lr.ph ], [ %1, %3 ]
  %.01820 = phi i32 [ %21, %.lr.ph ], [ %2, %3 ]
  %4 = getelementptr inbounds nuw i8, ptr %.01721, i64 8
  %5 = load float, ptr %4, align 4
  %6 = getelementptr inbounds nuw i8, ptr %.01721, i64 12
  %7 = load float, ptr %6, align 4
  %8 = getelementptr inbounds nuw i8, ptr %.01721, i64 16
  %9 = load float, ptr %8, align 4
  %10 = load float, ptr %.01721, align 4
  %11 = fmul float %5, 0x3FBC71C720000000
  %12 = tail call float @llvm.fmuladd.f32(float %10, float 0x3FD7F341C0000000, float %11)
  %13 = tail call float @llvm.fmuladd.f32(float %7, float 0x3FD46C5100000000, float %12)
  %14 = tail call float @llvm.fmuladd.f32(float %9, float 0x3FC907F6E0000000, float %13)
  store float %14, ptr %.022, align 4
  %15 = getelementptr inbounds nuw i8, ptr %.01721, i64 4
  %16 = load float, ptr %15, align 4
  %17 = tail call float @llvm.fmuladd.f32(float %16, float 0x3FD7F341C0000000, float %11)
  %18 = tail call float @llvm.fmuladd.f32(float %7, float 0x3FC907F6E0000000, float %17)
  %19 = tail call float @llvm.fmuladd.f32(float %9, float 0x3FD46C5100000000, float %18)
  %20 = getelementptr inbounds nuw i8, ptr %.022, i64 4
  store float %19, ptr %20, align 4
  %21 = add nsw i32 %.01820, -1
  %22 = getelementptr inbounds nuw i8, ptr %.01721, i64 20
  %23 = getelementptr inbounds nuw i8, ptr %.022, i64 8
  %.not = icmp eq i32 %21, 0
  br i1 %.not, label %._crit_edge, label %.lr.ph, !llvm.loop !79

._crit_edge:                                      ; preds = %.lr.ph, %3
  ret void
}